; Function Attrs: nounwind uwtable
define noalias nonnull ptr @l_Array_forIn_x27Unsafe_loop___at_Lean_Elab_Command_runLinters___spec__9___lambda__1(ptr noundef %0, ptr readnone captures(none) %1, ptr readnone captures(none) %2, ptr readnone captures(none) %3, ptr noundef %4) local_unnamed_addr #0 {
  %6 = getelementptr inbounds nuw i8, ptr %0, i64 16
  %7 = load ptr, ptr %6, align 8, !tbaa !9
  %8 = ptrtoint ptr %7 to i64
  %9 = and i64 %8, 1
  %.not = icmp eq i64 %9, 0
  br i1 %.not, label %10, label %lean_inc.exit

10:                                               ; preds = %5
  %.val.i = load i32, ptr %7, align 4, !tbaa !4
  %11 = icmp sgt i32 %.val.i, 0
  br i1 %11, label %12, label %14, !prof !13

12:                                               ; preds = %10
  %13 = add nuw i32 %.val.i, 1
  store i32 %13, ptr %7, align 4, !tbaa !4
  br label %lean_inc.exit

14:                                               ; preds = %10
  %.not.i17 = icmp eq i32 %.val.i, 0
  br i1 %.not.i17, label %lean_inc.exit, label %15

15:                                               ; preds = %14
  tail call void @lean_inc_ref_cold(ptr noundef nonnull %7) #6
  br label %lean_inc.exit

lean_inc.exit:                                    ; preds = %15, %14, %12, %5
  %16 = ptrtoint ptr %0 to i64
  %17 = and i64 %16, 1
  %.not20 = icmp eq i64 %17, 0
  br i1 %.not20, label %18, label %lean_dec.exit

18:                                               ; preds = %lean_inc.exit
  %19 = load i32, ptr %0, align 4, !tbaa !4
  %20 = icmp sgt i32 %19, 1
  br i1 %20, label %21, label %23, !prof !13

21:                                               ; preds = %18
  %22 = add nsw i32 %19, -1
  store i32 %22, ptr %0, align 4, !tbaa !4
  br label %lean_dec.exit

23:                                               ; preds = %18
  %.not.i = icmp eq i32 %19, 0
  br i1 %.not.i, label %lean_dec.exit, label %24

24:                                               ; preds = %23
  tail call void @lean_dec_ref_cold(ptr noundef nonnull %0) #6
  br label %lean_dec.exit

lean_dec.exit:                                    ; preds = %24, %23, %21, %lean_inc.exit
  %25 = tail call ptr @l_Lean_MessageData_ofConstName(ptr noundef %7, i8 noundef zeroext 0) #6
  %26 = load ptr, ptr @l_Array_forIn_x27Unsafe_loop___at_Lean_Elab_Command_runLinters___spec__9___lambda__1___closed__2, align 8, !tbaa !9
  tail call void @lean_inc_heartbeat() #6
  %27 = tail call noalias ptr @mi_malloc_small(i64 noundef 24) #6
  %28 = icmp eq ptr %27, null
  br i1 %28, label %29, label %lean_alloc_ctor.exit

29:                                               ; preds = %lean_dec.exit
  tail call void @lean_internal_panic_out_of_memory() #7
  unreachable

lean_alloc_ctor.exit:                             ; preds = %lean_dec.exit
  %30 = getelementptr inbounds nuw i8, ptr %27, i64 4
  store i32 1, ptr %27, align 4, !tbaa !4
  store i32 117571608, ptr %30, align 4
  %31 = getelementptr inbounds nuw i8, ptr %27, i64 8
  store ptr %26, ptr %31, align 8, !tbaa !9
  %32 = getelementptr inbounds nuw i8, ptr %27, i64 16
  store ptr %25, ptr %32, align 8, !tbaa !9
  %33 = load ptr, ptr @l_Lean_Elab_logException___at_Lean_Elab_Command_runLinters___spec__1___closed__3, align 8, !tbaa !9
  tail call void @lean_inc_heartbeat() #6
  %34 = tail call noalias ptr @mi_malloc_small(i64 noundef 24) #6
  %35 = icmp eq ptr %34, null
  br i1 %35, label %36, label %lean_alloc_ctor.exit18

36:                                               ; preds = %lean_alloc_ctor.exit
  tail call void @lean_internal_panic_out_of_memory() #7
  unreachable

lean_alloc_ctor.exit18:                           ; preds = %lean_alloc_ctor.exit
  %37 = getelementptr inbounds nuw i8, ptr %34, i64 4
  store i32 1, ptr %34, align 4, !tbaa !4
  store i32 117571608, ptr %37, align 4
  %38 = getelementptr inbounds nuw i8, ptr %34, i64 8
  store ptr %27, ptr %38, align 8, !tbaa !9
  %39 = getelementptr inbounds nuw i8, ptr %34, i64 16
  store ptr %33, ptr %39, align 8, !tbaa !9
  tail call void @lean_inc_heartbeat() #6
  %40 = tail call noalias ptr @mi_malloc_small(i64 noundef 24) #6
  %41 = icmp eq ptr %40, null
  br i1 %41, label %42, label %lean_alloc_ctor.exit19

42:                                               ; preds = %lean_alloc_ctor.exit18
  tail call void @lean_internal_panic_out_of_memory() #7
  unreachable

lean_alloc_ctor.exit19:                           ; preds = %lean_alloc_ctor.exit18
  %43 = getelementptr inbounds nuw i8, ptr %40, i64 4
  store i32 1, ptr %40, align 4, !tbaa !4
  store i32 131096, ptr %43, align 4
  %44 = getelementptr inbounds nuw i8, ptr %40, i64 8
  store ptr %34, ptr %44, align 8, !tbaa !9
  %45 = getelementptr inbounds nuw i8, ptr %40, i64 16
  store ptr %4, ptr %45, align 8, !tbaa !9
  ret ptr %40
}